; Function Attrs: mustprogress nofree norecurse nosync nounwind willreturn memory(argmem: read) uwtable
define noundef zeroext i1 @_ZNK32pxrInternal_v0_24__pxrReserved__8SdfLayer13_ShouldNotifyEv(ptr noundef nonnull readonly align 8 captures(none) dereferenceable(557) %0) local_unnamed_addr #10 align 2 {
  %2 = getelementptr inbounds nuw i8, ptr %0, i64 505
  %3 = getelementptr inbounds nuw i8, ptr %0, i64 506
  %4 = load i8, ptr %3, align 2
  %5 = trunc i8 %4 to i1
  %.val.i = load i8, ptr %2, align 1
  %6 = trunc i8 %.val.i to i1
  %.0.i = select i1 %5, i1 %6, i1 false
  ret i1 %.0.i
}